; Function Attrs: mustprogress nounwind uwtable
define hidden noundef ptr @_ZN10LoadUBNode5IdealEP8PhaseGVNb(ptr noundef nonnull align 8 dereferenceable(72) %0, ptr noundef %1, i1 noundef zeroext %2) unnamed_addr #1 align 2 {
  %4 = getelementptr inbounds i8, ptr %0, i64 8
  %5 = load ptr, ptr %4, align 8
  %6 = getelementptr inbounds i8, ptr %5, i64 8
  %7 = load ptr, ptr %6, align 8
  %8 = tail call noundef ptr @_ZNK7MemNode20can_see_stored_valueEP4NodeP11PhaseValues(ptr noundef nonnull align 8 dereferenceable(56) %0, ptr noundef %7, ptr noundef %1)
  %.not = icmp eq ptr %8, null
  br i1 %.not, label %13, label %9

9:                                                ; preds = %3
  %10 = getelementptr inbounds i8, ptr %0, i64 64
  %11 = load ptr, ptr %10, align 8
  %12 = tail call noundef ptr @_ZN7Compile12narrow_valueE9BasicTypeP4NodePK4TypeP8PhaseGVNb(i8 noundef zeroext 4, ptr noundef nonnull %8, ptr noundef %11, ptr noundef %1, i1 noundef zeroext false) #13
  %.not13 = icmp eq ptr %12, %8
  br i1 %.not13, label %13, label %15

13:                                               ; preds = %9, %3
  %14 = tail call noundef ptr @_ZN8LoadNode5IdealEP8PhaseGVNb(ptr noundef nonnull align 8 dereferenceable(72) %0, ptr noundef %1, i1 noundef zeroext %2)
  br label %15

15:                                               ; preds = %9, %13
  %.0 = phi ptr [ %14, %13 ], [ %12, %9 ]
  ret ptr %.0
}